target datalayout = "e-m:e-p270:32:32-p271:32:32-p272:64:64-i64:64-i128:128-f80:128-n8:16:32:64-S128"
target triple = "x86_64-unknown-linux-gnu"

%"class.sat::literal" = type { i32 }
%"class.nlsat::solver" = type { ptr, ptr }
%"struct.nlsat::solver::imp" = type { ptr, ptr, ptr, ptr, i8, ptr, ptr, %"class.polynomial::cache", ptr, %class.dependency_manager, %"class.nlsat::assignment", %"class.nlsat::evaluator", ptr, %class.chashtable, %class.chashtable.7, %class.svector.8, %class.ref_vector, %class.ref_vector, %class.id_gen, %class.ptr_vector.12, %class.ptr_vector.12, %class.ptr_vector.12, i32, %class.ptr_vector.14, %class.svector.16, %class.svector.8, %class.svector.18, %class.vector.20, %class.svector.5, %class.id_gen, %class.svector.5, %class.vector.20, %class.ptr_vector.21, %class.ptr_vector.14, %class.svector.8, %class.svector.8, %"struct.nlsat::solver::imp::perm_display_var_proc", ptr, %"class.nlsat::explain", i32, i32, i32, %class.svector.23, %"class.algebraic_numbers::anum", i64, i32, i8, i8, i8, i8, i32, i8, i8, i8, i32, i32, i32, i32, i32, i32, i32, %class.svector.5, %class.svector.25, %class.ptr_vector.12, i32, %class.svector.27, i32, %"class.nlsat::scoped_literal_vector", %"class.nlsat::scoped_literal_vector", %class.obj_ref, %class.svector.8, %class.svector.8, %class.svector.16 }
%"class.polynomial::cache" = type { ptr }
%class.dependency_manager = type { ptr, ptr, %class.ptr_vector.1 }
%class.ptr_vector.1 = type { %class.vector.2 }
%class.vector.2 = type { ptr }
%"class.nlsat::assignment" = type { %"class.polynomial::var2value", %class._scoped_numeral_vector, %class.svector.5 }
%"class.polynomial::var2value" = type { ptr }
%class._scoped_numeral_vector = type { %class.svector.3, ptr }
%class.svector.3 = type { %class.vector.4 }
%class.vector.4 = type { ptr }
%"class.nlsat::evaluator" = type { ptr }
%class.chashtable = type { ptr, i32, i32, i32, i32, i32, i32, i32, ptr, ptr, ptr }
%class.chashtable.7 = type { ptr, i32, i32, i32, i32, i32, i32, i32, ptr, ptr, ptr }
%class.ref_vector = type { %class.ref_vector_core }
%class.ref_vector_core = type { %class.ref_manager_wrapper, %class.ptr_vector.10 }
%class.ref_manager_wrapper = type { ptr }
%class.ptr_vector.10 = type { %class.vector.11 }
%class.vector.11 = type { ptr }
%class.svector.18 = type { %class.vector.19 }
%class.vector.19 = type { ptr }
%class.id_gen = type { i32, %class.svector.8 }
%class.vector.20 = type { ptr }
%class.ptr_vector.21 = type { %class.vector.22 }
%class.vector.22 = type { ptr }
%class.ptr_vector.14 = type { %class.vector.15 }
%class.vector.15 = type { ptr }
%"struct.nlsat::solver::imp::perm_display_var_proc" = type { %"struct.polynomial::display_var_proc", ptr, %"struct.polynomial::display_var_proc", ptr }
%"struct.polynomial::display_var_proc" = type { ptr }
%"class.nlsat::explain" = type { ptr }
%class.svector.23 = type { %class.vector.24 }
%class.vector.24 = type { ptr }
%"class.algebraic_numbers::anum" = type { ptr }
%class.svector.5 = type { %class.vector.6 }
%class.vector.6 = type { ptr }
%class.svector.25 = type { %class.vector.26 }
%class.vector.26 = type { ptr }
%class.ptr_vector.12 = type { %class.vector.13 }
%class.vector.13 = type { ptr }
%class.svector.27 = type { %class.vector.28 }
%class.vector.28 = type { ptr }
%"class.nlsat::scoped_literal_vector" = type { ptr, %class.svector.25 }
%class.obj_ref = type { ptr, ptr }
%class.svector.8 = type { %class.vector.9 }
%class.vector.9 = type { ptr }
%class.svector.16 = type { %class.vector.17 }
%class.vector.17 = type { ptr }
%"struct.dependency_manager<nlsat::solver::imp::dconfig>::leaf" = type { %"class.dependency_manager<nlsat::solver::imp::dconfig>::dependency", ptr }
%"class.dependency_manager<nlsat::solver::imp::dconfig>::dependency" = type { i32 }

@_ZN5nlsatL13false_literalE = internal global %"class.sat::literal" zeroinitializer, align 4

; Function Attrs: mustprogress nounwind uwtable
define linkonce_odr hidden void @_ZN18dependency_managerIN5nlsat6solver3imp7dconfigEE10dependencyC2Eb(ptr noundef nonnull align 4 dereferenceable(4) %this, i1 noundef zeroext %leaf) unnamed_addr #4 comdat align 2 {
entry:
  %this.addr = alloca ptr, align 8
  %leaf.addr = alloca i8, align 1
  store ptr %this, ptr %this.addr, align 8
  %frombool = zext i1 %leaf to i8
  store i8 %frombool, ptr %leaf.addr, align 1
  %this1 = load ptr, ptr %this.addr, align 8
  %bf.load = load i32, ptr %this1, align 4
  %bf.clear = and i32 %bf.load, -1073741824
  %bf.set = or i32 %bf.clear, 0
  store i32 %bf.set, ptr %this1, align 4
  %bf.load2 = load i32, ptr %this1, align 4
  %bf.clear3 = and i32 %bf.load2, -1073741825
  %bf.set4 = or i32 %bf.clear3, 0
  store i32 %bf.set4, ptr %this1, align 4
  %0 = load i8, ptr %leaf.addr, align 1
  %tobool = trunc i8 %0 to i1
  %conv = zext i1 %tobool to i32
  %bf.load5 = load i32, ptr %this1, align 4
  %bf.value = and i32 %conv, 1
  %bf.shl = shl i32 %bf.value, 31
  %bf.clear6 = and i32 %bf.load5, 2147483647
  %bf.set7 = or i32 %bf.clear6, %bf.shl
  store i32 %bf.set7, ptr %this1, align 4
  ret void
}

; Function Attrs: mustprogress nounwind uwtable
define linkonce_odr hidden void @_ZN18dependency_managerIN5nlsat6solver3imp7dconfigEE4leafC2ERKPv(ptr noundef nonnull align 8 dereferenceable(16) %this, ptr noundef nonnull align 8 dereferenceable(8) %v) unnamed_addr #4 comdat align 2 {
entry:
  %this.addr = alloca ptr, align 8
  %v.addr = alloca ptr, align 8
  store ptr %this, ptr %this.addr, align 8
  store ptr %v, ptr %v.addr, align 8
  %this1 = load ptr, ptr %this.addr, align 8
  call void @_ZN18dependency_managerIN5nlsat6solver3imp7dconfigEE10dependencyC2Eb(ptr noundef nonnull align 4 dereferenceable(4) %this1, i1 noundef zeroext true)
  %m_value = getelementptr inbounds %"struct.dependency_manager<nlsat::solver::imp::dconfig>::leaf", ptr %this1, i32 0, i32 1
  %0 = load ptr, ptr %v.addr, align 8
  %1 = load ptr, ptr %0, align 8
  store ptr %1, ptr %m_value, align 8
  ret void
}

; Function Attrs: mustprogress nounwind uwtable
define linkonce_odr hidden void @_ZN18dependency_managerIN5nlsat6solver3imp7dconfigEE7inc_refERKPv(ptr noundef nonnull align 8 dereferenceable(24) %this, ptr noundef nonnull align 8 dereferenceable(8) %v) #4 comdat align 2 {
entry:
  %this.addr = alloca ptr, align 8
  %v.addr = alloca ptr, align 8
  store ptr %this, ptr %this.addr, align 8
  store ptr %v, ptr %v.addr, align 8
  ret void
}

; Function Attrs: mustprogress uwtable
define linkonce_odr hidden noundef ptr @_ZN18dependency_managerIN5nlsat6solver3imp7dconfigEE7mk_leafERKPv(ptr noundef nonnull align 8 dereferenceable(24) %this, ptr noundef nonnull align 8 dereferenceable(8) %v) #5 comdat align 2 {
entry:
  %this.addr = alloca ptr, align 8
  %v.addr = alloca ptr, align 8
  %mem = alloca ptr, align 8
  store ptr %this, ptr %this.addr, align 8
  store ptr %v, ptr %v.addr, align 8
  %this1 = load ptr, ptr %this.addr, align 8
  %m_allocator = getelementptr inbounds %class.dependency_manager, ptr %this1, i32 0, i32 1
  %0 = load ptr, ptr %m_allocator, align 8
  %call = call noundef ptr @_ZN22small_object_allocator8allocateEm(ptr noundef nonnull align 8 dereferenceable(520) %0, i64 noundef 16)
  store ptr %call, ptr %mem, align 8
  %1 = load ptr, ptr %v.addr, align 8
  call void @_ZN18dependency_managerIN5nlsat6solver3imp7dconfigEE7inc_refERKPv(ptr noundef nonnull align 8 dereferenceable(24) %this1, ptr noundef nonnull align 8 dereferenceable(8) %1)
  %2 = load ptr, ptr %mem, align 8
  %3 = load ptr, ptr %v.addr, align 8
  call void @_ZN18dependency_managerIN5nlsat6solver3imp7dconfigEE4leafC2ERKPv(ptr noundef nonnull align 8 dereferenceable(16) %2, ptr noundef nonnull align 8 dereferenceable(8) %3)
  ret ptr %2
}

; Function Attrs: mustprogress uwtable
define linkonce_odr hidden void @_ZN5nlsat6solver3imp9mk_clauseEjPKN3sat7literalEPv(ptr noundef nonnull align 8 dereferenceable(728) %this, i32 noundef %num_lits, ptr noundef %lits, ptr noundef %a) #5 comdat align 2 {
entry:
  %this.addr = alloca ptr, align 8
  %num_lits.addr = alloca i32, align 4
  %lits.addr = alloca ptr, align 8
  %a.addr = alloca ptr, align 8
  %as = alloca ptr, align 8
  store ptr %this, ptr %this.addr, align 8
  store i32 %num_lits, ptr %num_lits.addr, align 4
  store ptr %lits, ptr %lits.addr, align 8
  store ptr %a, ptr %a.addr, align 8
  %this1 = load ptr, ptr %this.addr, align 8
  store ptr null, ptr %as, align 8
  %0 = load ptr, ptr %a.addr, align 8
  %cmp = icmp ne ptr %0, null
  br i1 %cmp, label %if.then, label %if.end

if.then:                                          ; preds = %entry
  %m_asm = getelementptr inbounds %"struct.nlsat::solver::imp", ptr %this1, i32 0, i32 9
  %call = call noundef ptr @_ZN18dependency_managerIN5nlsat6solver3imp7dconfigEE7mk_leafERKPv(ptr noundef nonnull align 8 dereferenceable(24) %m_asm, ptr noundef nonnull align 8 dereferenceable(8) %a.addr)
  store ptr %call, ptr %as, align 8
  br label %if.end

if.end:                                           ; preds = %if.then, %entry
  %1 = load i32, ptr %num_lits.addr, align 4
  %cmp2 = icmp eq i32 %1, 0
  br i1 %cmp2, label %if.then3, label %if.end4

if.then3:                                         ; preds = %if.end
  store i32 1, ptr %num_lits.addr, align 4
  store ptr @_ZN5nlsatL13false_literalE, ptr %lits.addr, align 8
  br label %if.end4

if.end4:                                          ; preds = %if.then3, %if.end
  %2 = load i32, ptr %num_lits.addr, align 4
  %3 = load ptr, ptr %lits.addr, align 8
  %4 = load ptr, ptr %as, align 8
  %call5 = call noundef ptr @_ZN5nlsat6solver3imp9mk_clauseEjPKN3sat7literalEbPN18dependency_managerINS1_7dconfigEE10dependencyE(ptr noundef nonnull align 8 dereferenceable(728) %this1, i32 noundef %2, ptr noundef %3, i1 noundef zeroext false, ptr noundef %4)
  ret void
}

; Function Attrs: mustprogress uwtable
define hidden void @_ZN5nlsat6solver9mk_clauseEjPN3sat7literalEPv(ptr noundef nonnull align 8 dereferenceable(16) %this, i32 noundef %num_lits, ptr noundef %lits, ptr noundef %a) #5 align 2 {
entry:
  %this.addr = alloca ptr, align 8
  %num_lits.addr = alloca i32, align 4
  %lits.addr = alloca ptr, align 8
  %a.addr = alloca ptr, align 8
  store ptr %this, ptr %this.addr, align 8
  store i32 %num_lits, ptr %num_lits.addr, align 4
  store ptr %lits, ptr %lits.addr, align 8
  store ptr %a, ptr %a.addr, align 8
  %this1 = load ptr, ptr %this.addr, align 8
  %m_imp = getelementptr inbounds %"class.nlsat::solver", ptr %this1, i32 0, i32 0
  %0 = load ptr, ptr %m_imp, align 8
  %1 = load i32, ptr %num_lits.addr, align 4
  %2 = load ptr, ptr %lits.addr, align 8
  %3 = load ptr, ptr %a.addr, align 8
  call void @_ZN5nlsat6solver3imp9mk_clauseEjPKN3sat7literalEPv(ptr noundef nonnull align 8 dereferenceable(728) %0, i32 noundef %1, ptr noundef %2, ptr noundef %3)
  ret void
}