; Function Attrs: mustprogress uwtable
define hidden void @_ZN5nlsat6solver9mk_clauseEjPN3sat7literalEPv(ptr nocapture noundef nonnull readonly align 8 dereferenceable(16) %this, i32 noundef %num_lits, ptr noundef %lits, ptr noundef %a) local_unnamed_addr #4 align 2 {
entry:
  %0 = load ptr, ptr %this, align 8
  %cmp.not.i = icmp eq ptr %a, null
  br i1 %cmp.not.i, label %_ZN5nlsat6solver3imp9mk_clauseEjPKN3sat7literalEPv.exit, label %if.then.i

if.then.i:                                        ; preds = %entry
  %m_allocator.i.i = getelementptr inbounds i8, ptr %0, i64 80
  %1 = load ptr, ptr %m_allocator.i.i, align 8
  %call.i.i = tail call noundef ptr @_ZN22small_object_allocator8allocateEm(ptr noundef nonnull align 8 dereferenceable(520) %1, i64 noundef 16)
  store i32 -2147483648, ptr %call.i.i, align 4
  %m_value.i.i.i = getelementptr inbounds i8, ptr %call.i.i, i64 8
  store ptr %a, ptr %m_value.i.i.i, align 8
  br label %_ZN5nlsat6solver3imp9mk_clauseEjPKN3sat7literalEPv.exit

_ZN5nlsat6solver3imp9mk_clauseEjPKN3sat7literalEPv.exit: ; preds = %entry, %if.then.i
  %as.0.i = phi ptr [ %call.i.i, %if.then.i ], [ null, %entry ]
  %cmp2.i = icmp eq i32 %num_lits, 0
  %spec.select.i = tail call i32 @llvm.umax.i32(i32 %num_lits, i32 1)
  %spec.select2.i = select i1 %cmp2.i, ptr @_ZN5nlsatL13false_literalE, ptr %lits
  %call5.i = tail call noundef ptr @_ZN5nlsat6solver3imp9mk_clauseEjPKN3sat7literalEbPN18dependency_managerINS1_7dconfigEE10dependencyE(ptr noundef nonnull align 8 dereferenceable(728) %0, i32 noundef %spec.select.i, ptr noundef %spec.select2.i, i1 noundef zeroext false, ptr noundef %as.0.i)
  ret void
}